Certificate:
    Data:
        Version: 3 (0x2)
        Serial Number: 1 (0x1)
        Signature Algorithm: sha256WithRSAEncryption
        Issuer: DC=org, DC=simple, O=Simple Inc, OU=Simple Signing CA, CN=Simple Signing CA
        Validity
            Not Before: Oct  5 05:25:48 2020 GMT
            Not After : Oct  5 05:25:48 2021 GMT
        Subject: CN=consdphost001.jf.intel.com
        Subject Public Key Info:
            Public Key Algorithm: rsaEncryption
                RSA Public-Key: (2048 bit)
                Modulus:
                    00:c2:0d:ea:ec:6f:3e:ab:87:13:9b:9b:b8:10:8b:
                    15:6a:16:f1:dd:a7:b9:55:db:63:0c:fa:dd:d0:09:
                    0c:4b:97:95:f7:7a:d9:26:53:b6:f2:50:41:45:99:
                    3d:c2:23:16:c0:3e:5e:3e:ad:fe:e3:38:ff:ad:e3:
                    3a:63:0e:4a:b4:fe:f7:43:8e:aa:dc:c2:9a:91:e9:
                    db:bd:c7:31:5c:78:8b:fa:c2:e0:71:f2:72:12:f9:
                    50:70:4c:e6:8d:81:b8:5a:a0:db:15:f3:6c:0b:3d:
                    1e:48:f0:1a:db:a5:fd:74:dc:51:d7:1f:b5:b1:f5:
                    67:5a:b1:f7:f0:d1:7f:df:59:3d:11:ca:b3:27:4b:
                    cf:f3:39:32:9e:9f:c3:a4:d9:05:03:70:6c:f1:c3:
                    09:0d:24:27:fa:55:4e:ad:cc:b0:3f:aa:fc:8a:7d:
                    b2:4c:0b:4b:87:5c:cf:51:67:a7:13:e2:22:68:94:
                    a6:35:2f:f7:c7:8f:72:6d:91:8b:0c:7a:df:e6:76:
                    69:31:7b:bf:70:1b:95:90:73:df:e9:49:00:7c:f4:
                    ba:32:52:55:69:3d:10:ca:06:44:3a:c5:23:67:78:
                    aa:79:fd:53:56:b5:d2:84:07:44:38:08:48:3b:e0:
                    52:ce:f0:b8:c7:af:26:93:a6:36:14:c3:d3:6b:7e:
                    3a:15
                Exponent: 65537 (0x10001)
        X509v3 extensions:
            X509v3 Basic Constraints: 
                CA:FALSE
            X509v3 Authority Key Identifier: 
                keyid:2C:B4:B3:18:8A:B5:3A:B8:5A:AB:8A:CA:AA:50:75:E2:02:12:74:36

            X509v3 Key Usage: critical
                Digital Signature, Key Encipherment
            X509v3 Extended Key Usage: 
                TLS Web Server Authentication
            X509v3 Subject Key Identifier: 
                19:E9:7E:39:8E:75:F6:3F:94:DB:EF:4D:FF:90:27:6F:2B:E3:DF:A9
            X509v3 Subject Alternative Name: 
                DNS:consdphost001.jf.intel.com
    Signature Algorithm: sha256WithRSAEncryption
         c8:3a:b5:82:6a:4f:58:e3:27:c3:91:56:92:a4:c3:e8:71:0b:
         43:c8:ec:06:c2:6c:19:11:1b:01:85:7b:ec:8f:76:91:30:8b:
         a6:e9:20:ad:07:3e:81:d5:9e:16:e7:b1:04:c3:f5:f0:93:65:
         1c:f4:c4:ac:15:de:19:9d:ae:9e:75:da:31:10:d4:00:b6:76:
         ff:12:64:59:f9:ac:8a:51:e5:26:82:fa:97:5a:ef:99:a6:11:
         92:28:24:be:f7:d2:c6:b5:70:29:84:9b:b1:bb:48:69:56:a5:
         89:c1:0d:9b:36:d1:ce:42:ed:e8:ac:42:f8:8c:47:4d:d6:3e:
         26:94:e6:2d:9e:fe:75:0e:a9:ab:d9:84:64:b6:9b:48:83:02:
         c6:50:93:2f:89:96:bf:fc:b0:f1:b5:ff:65:48:56:31:23:63:
         46:ce:13:22:07:1a:e5:22:cf:d4:7a:fe:6f:27:6d:be:a8:9b:
         b6:00:53:f3:66:c9:71:5b:f6:85:17:4b:02:d1:56:fe:7d:7e:
         96:99:69:03:31:a0:29:ec:f7:ac:74:c1:49:d0:ae:cd:b2:db:
         4d:85:83:55:49:0f:89:4c:87:40:df:83:2e:e7:54:49:ed:54:
         2a:0c:44:1b:b0:91:2e:46:1d:c8:1c:7e:da:26:92:71:4d:90:
         df:23:9c:98
-----BEGIN CERTIFICATE-----
MIIDtTCCAp2gAwIBAgIBATANBgkqhkiG9w0BAQsFADB6MRMwEQYKCZImiZPyLGQB
GRYDb3JnMRYwFAYKCZImiZPyLGQBGRYGc2ltcGxlMRMwEQYDVQQKDApTaW1wbGUg
SW5jMRowGAYDVQQLDBFTaW1wbGUgU2lnbmluZyBDQTEaMBgGA1UEAwwRU2ltcGxl
IFNpZ25pbmcgQ0EwHhcNMjAxMDA1MDUyNTQ4WhcNMjExMDA1MDUyNTQ4WjAlMSMw
IQYDVQQDDBpjb25zZHBob3N0MDAxLmpmLmludGVsLmNvbTCCASIwDQYJKoZIhvcN
AQEBBQADggEPADCCAQoCggEBAMIN6uxvPquHE5ubuBCLFWoW8d2nuVXbYwz63dAJ
DEuXlfd62SZTtvJQQUWZPcIjFsA+Xj6t/uM4/63jOmMOSrT+90OOqtzCmpHp273H
MVx4i/rC4HHychL5UHBM5o2BuFqg2xXzbAs9HkjwGtul/XTcUdcftbH1Z1qx9/DR
f99ZPRHKsydLz/M5Mp6fw6TZBQNwbPHDCQ0kJ/pVTq3MsD+q/Ip9skwLS4dcz1Fn
pxPiImiUpjUv98ePcm2Riwx63+Z2aTF7v3AblZBz3+lJAHz0ujJSVWk9EMoGRDrF
I2d4qnn9U1a10oQHRDgISDvgUs7wuMevJpOmNhTD02t+OhUCAwEAAaOBmjCBlzAJ
BgNVHRMEAjAAMB8GA1UdIwQYMBaAFCy0sxiKtTq4WquKyqpQdeICEnQ2MA4GA1Ud
DwEB/wQEAwIFoDATBgNVHSUEDDAKBggrBgEFBQcDATAdBgNVHQ4EFgQUGel+OY51
9j+U2+9N/5Anbyvj36kwJQYDVR0RBB4wHIIaY29uc2RwaG9zdDAwMS5qZi5pbnRl
bC5jb20wDQYJKoZIhvcNAQELBQADggEBAMg6tYJqT1jjJ8ORVpKkw+hxC0PI7AbC
bBkRGwGFe+yPdpEwi6bpIK0HPoHVnhbnsQTD9fCTZRz0xKwV3hmdrp512jEQ1AC2
dv8SZFn5rIpR5SaC+pda75mmEZIoJL730sa1cCmEm7G7SGlWpYnBDZs20c5C7eis
QviMR03WPiaU5i2e/nUOqavZhGS2m0iDAsZQky+Jlr/8sPG1/2VIVjEjY0bOEyIH
GuUiz9R6/m8nbb6om7YAU/NmyXFb9oUXSwLRVv59fpaZaQMxoCns96x0wUnQrs2y
202Fg1VJD4lMh0Dfgy7nVEntVCoMRBuwkS5GHcgcftomknFNkN8jnJg=
-----END CERTIFICATE-----
