Certificate:
    Data:
        Version: 3 (0x2)
        Serial Number: 2 (0x2)
        Signature Algorithm: sha256WithRSAEncryption
        Issuer: DC=org, DC=simple, O=Simple Inc, OU=Simple Signing CA, CN=Simple Signing CA
        Validity
            Not Before: Oct  5 05:27:23 2020 GMT
            Not After : Oct  5 05:27:23 2021 GMT
        Subject: CN=one
        Subject Public Key Info:
            Public Key Algorithm: rsaEncryption
                RSA Public-Key: (2048 bit)
                Modulus:
                    00:c7:57:e8:ba:30:17:56:a4:70:23:b9:ee:4e:40:
                    ed:ce:05:fb:66:27:66:2d:0c:08:cf:cf:fa:2d:da:
                    f2:93:2b:94:70:50:f3:78:16:c6:54:6c:97:bd:bf:
                    15:41:a9:e3:b7:da:f6:2c:47:55:93:c3:ab:37:a8:
                    f6:bc:d4:80:fc:a8:b2:a6:dd:48:c9:b5:31:f2:b7:
                    46:c7:e1:3d:e7:14:c3:56:74:7f:92:ff:9b:f4:8b:
                    66:a6:1d:f5:b1:d7:35:97:b2:a8:aa:48:39:e2:e5:
                    4a:97:85:88:ff:2e:50:e0:b3:d3:c0:14:ce:f0:cc:
                    ac:f6:09:dc:85:bd:cb:e1:ba:56:80:34:c5:f3:39:
                    44:c3:70:88:5a:22:93:49:4b:f7:ca:eb:3e:3e:2e:
                    1e:94:0a:78:c2:17:2f:f1:1e:b3:e7:f6:90:f1:88:
                    db:f8:90:98:43:eb:36:ca:1b:ef:5c:00:d0:23:26:
                    f4:aa:3e:ad:3e:61:13:e2:d4:34:30:a1:9a:e9:c5:
                    5e:28:ac:07:5d:80:8f:f3:f4:cb:9b:b7:aa:13:ba:
                    bd:e0:4d:b3:34:fb:33:c6:27:7a:7a:de:93:a5:4b:
                    7d:93:49:b3:91:c8:88:e1:a3:03:43:44:d2:58:64:
                    8b:aa:a0:03:e2:6e:9d:85:63:47:03:c8:c0:14:6c:
                    2b:fd
                Exponent: 65537 (0x10001)
        X509v3 extensions:
            X509v3 Basic Constraints: 
                CA:FALSE
            X509v3 Authority Key Identifier: 
                keyid:2C:B4:B3:18:8A:B5:3A:B8:5A:AB:8A:CA:AA:50:75:E2:02:12:74:36

            X509v3 Key Usage: critical
                Digital Signature, Key Encipherment
            X509v3 Extended Key Usage: 
                TLS Web Client Authentication
            X509v3 Subject Key Identifier: 
                BA:7E:1A:CD:FF:C8:0E:17:2A:05:A3:4F:61:A1:01:7F:7A:B6:40:D2
            X509v3 Subject Alternative Name: 
                DNS:one
    Signature Algorithm: sha256WithRSAEncryption
         d0:2f:df:7f:00:c0:d8:46:2c:e8:b6:4a:ed:35:d4:eb:e3:e8:
         9b:ae:f0:0d:79:db:02:db:5c:bf:34:fa:74:a7:b2:02:4b:f6:
         af:0f:db:55:07:61:dc:65:00:71:4e:c6:bf:c6:08:14:6a:c9:
         63:b5:d8:2a:3b:74:76:72:87:5f:c2:9a:94:98:b6:06:83:e8:
         c5:60:62:ad:d7:d3:4f:f0:20:2b:69:f1:d0:37:da:a4:00:5f:
         ca:50:88:a6:ad:d5:30:c2:5c:f8:b4:cb:07:e8:89:71:a8:8f:
         4f:c7:6f:e6:a6:b3:4a:ff:cc:d3:96:99:8d:28:84:50:4a:81:
         f7:de:a6:6c:43:5d:f3:5a:51:1f:11:bd:37:72:56:bd:65:94:
         54:19:fb:7d:cb:b1:13:60:05:be:63:e5:70:f7:b6:1d:46:a0:
         c3:3b:3e:5f:68:fe:13:8a:f3:3c:dc:6b:d3:f7:c2:23:4b:6b:
         66:45:80:97:cd:ba:62:f4:ff:73:0c:0f:71:24:11:74:b0:a1:
         cc:5a:e4:9e:b8:bb:08:d5:69:f5:3a:01:9d:a4:e6:8e:a7:20:
         05:cc:f6:2e:0a:c2:a3:ee:d2:47:c5:2f:58:b1:af:cc:c1:2f:
         48:08:0f:19:95:9d:73:63:31:10:1e:cc:a9:e6:d4:69:25:2c:
         f6:a4:d0:c1
-----BEGIN CERTIFICATE-----
MIIDhzCCAm+gAwIBAgIBAjANBgkqhkiG9w0BAQsFADB6MRMwEQYKCZImiZPyLGQB
GRYDb3JnMRYwFAYKCZImiZPyLGQBGRYGc2ltcGxlMRMwEQYDVQQKDApTaW1wbGUg
SW5jMRowGAYDVQQLDBFTaW1wbGUgU2lnbmluZyBDQTEaMBgGA1UEAwwRU2ltcGxl
IFNpZ25pbmcgQ0EwHhcNMjAxMDA1MDUyNzIzWhcNMjExMDA1MDUyNzIzWjAOMQww
CgYDVQQDDANvbmUwggEiMA0GCSqGSIb3DQEBAQUAA4IBDwAwggEKAoIBAQDHV+i6
MBdWpHAjue5OQO3OBftmJ2YtDAjPz/ot2vKTK5RwUPN4FsZUbJe9vxVBqeO32vYs
R1WTw6s3qPa81ID8qLKm3UjJtTHyt0bH4T3nFMNWdH+S/5v0i2amHfWx1zWXsqiq
SDni5UqXhYj/LlDgs9PAFM7wzKz2CdyFvcvhulaANMXzOUTDcIhaIpNJS/fK6z4+
Lh6UCnjCFy/xHrPn9pDxiNv4kJhD6zbKG+9cANAjJvSqPq0+YRPi1DQwoZrpxV4o
rAddgI/z9Mubt6oTur3gTbM0+zPGJ3p63pOlS32TSbORyIjhowNDRNJYZIuqoAPi
bp2FY0cDyMAUbCv9AgMBAAGjgYMwgYAwCQYDVR0TBAIwADAfBgNVHSMEGDAWgBQs
tLMYirU6uFqrisqqUHXiAhJ0NjAOBgNVHQ8BAf8EBAMCBaAwEwYDVR0lBAwwCgYI
KwYBBQUHAwIwHQYDVR0OBBYEFLp+Gs3/yA4XKgWjT2GhAX96tkDSMA4GA1UdEQQH
MAWCA29uZTANBgkqhkiG9w0BAQsFAAOCAQEA0C/ffwDA2EYs6LZK7TXU6+Pom67w
DXnbAttcvzT6dKeyAkv2rw/bVQdh3GUAcU7Gv8YIFGrJY7XYKjt0dnKHX8KalJi2
BoPoxWBirdfTT/AgK2nx0DfapABfylCIpq3VMMJc+LTLB+iJcaiPT8dv5qazSv/M
05aZjSiEUEqB996mbENd81pRHxG9N3JWvWWUVBn7fcuxE2AFvmPlcPe2HUagwzs+
X2j+E4rzPNxr0/fCI0trZkWAl826YvT/cwwPcSQRdLChzFrknri7CNVp9ToBnaTm
jqcgBcz2LgrCo+7SR8UvWLGvzMEvSAgPGZWdc2MxEB7MqebUaSUs9qTQwQ==
-----END CERTIFICATE-----
