Certificate:
    Data:
        Version: 3 (0x2)
        Serial Number: 4 (0x4)
        Signature Algorithm: sha256WithRSAEncryption
        Issuer: DC=org, DC=simple, O=Simple Inc, OU=Simple Signing CA, CN=Simple Signing CA
        Validity
            Not Before: Oct  7 17:04:19 2020 GMT
            Not After : Oct  7 17:04:19 2021 GMT
        Subject: CN=three
        Subject Public Key Info:
            Public Key Algorithm: rsaEncryption
                RSA Public-Key: (2048 bit)
                Modulus:
                    00:dd:d0:8f:e1:83:6e:52:45:f2:ad:61:c5:ee:25:
                    04:03:98:7d:b1:4c:1e:00:de:56:c5:86:57:f6:8a:
                    1a:3f:94:4f:d6:ff:84:ac:bc:4f:e4:75:a6:c0:5e:
                    48:e2:06:39:c5:2f:e8:b0:78:a4:32:25:a6:22:7e:
                    16:7c:dc:29:d6:a5:9d:54:13:f0:83:f3:f2:fa:de:
                    d3:e9:6f:d6:36:e9:b3:3e:ea:df:72:54:59:1e:8b:
                    77:c4:7e:e1:bb:d1:27:d3:75:85:34:43:26:91:da:
                    ba:bb:cb:fd:7f:3d:7f:f3:79:ad:30:23:3b:7e:6e:
                    e4:23:e2:54:81:b8:fc:89:df:3a:dc:a0:9d:2f:83:
                    8b:b2:c1:eb:41:d8:6b:17:9e:8f:03:42:a0:4f:68:
                    14:2b:4c:7e:4a:4e:a9:b9:1f:94:30:2e:cc:a3:69:
                    61:8b:77:7c:79:51:ce:7e:12:fd:4d:5c:93:45:dd:
                    60:a6:97:01:4e:d0:c3:27:2e:0c:e4:ef:80:76:93:
                    c2:1d:b6:f5:c6:dd:24:e0:fc:32:44:76:68:33:aa:
                    03:12:52:86:f8:c0:f3:41:79:d9:3d:16:e7:d0:ad:
                    38:56:62:1f:79:b8:35:ce:22:0f:69:41:c5:34:46:
                    71:ec:63:6e:43:f0:36:dc:58:f2:f1:18:97:8f:4d:
                    59:ad
                Exponent: 65537 (0x10001)
        X509v3 extensions:
            X509v3 Basic Constraints: 
                CA:FALSE
            X509v3 Authority Key Identifier: 
                keyid:2C:B4:B3:18:8A:B5:3A:B8:5A:AB:8A:CA:AA:50:75:E2:02:12:74:36

            X509v3 Key Usage: critical
                Digital Signature, Key Encipherment
            X509v3 Extended Key Usage: 
                TLS Web Client Authentication
            X509v3 Subject Key Identifier: 
                71:1A:AE:47:96:D5:A7:CF:11:51:30:CF:29:D0:A5:6C:63:A7:CC:ED
            X509v3 Subject Alternative Name: 
                DNS:three
    Signature Algorithm: sha256WithRSAEncryption
         05:5d:6a:27:ab:db:7e:18:27:95:2f:1c:9d:4c:1e:89:8f:78:
         fe:27:b0:44:ed:9c:e2:54:20:af:c6:90:ea:9b:0a:98:fc:12:
         fb:5a:11:05:34:85:60:c3:d2:36:11:37:ec:ce:56:c6:ed:1d:
         94:93:95:0d:b1:41:16:de:3a:5d:e4:db:b3:8e:61:bf:02:db:
         d0:55:d4:42:88:f1:bf:d4:f5:1f:3a:35:57:07:c8:5f:2e:50:
         f1:9c:5a:79:c8:d5:e8:9e:2f:21:a8:52:2a:b6:a6:95:9d:8f:
         49:0f:21:3d:fb:77:26:f2:c0:40:50:ef:14:d5:83:47:c5:5a:
         a0:01:09:42:23:67:91:c5:24:c6:09:ce:5a:60:9b:7b:2d:19:
         e1:98:45:84:07:a8:3c:f4:ea:95:39:ee:c7:bb:bc:7a:d7:f2:
         95:a2:19:a3:68:e7:10:99:d0:a1:03:2e:40:3c:a4:03:ff:c0:
         07:0d:22:cb:3d:11:07:3c:00:d0:13:d7:96:7b:e9:a1:80:d1:
         88:07:82:6a:4a:6e:95:0b:0c:43:c6:9e:b1:08:37:62:5d:9a:
         0b:0f:a5:85:9a:88:bd:16:90:8d:37:15:79:4b:b3:f5:8f:5b:
         4c:7a:b9:dd:32:f8:1d:de:04:f6:40:c5:63:f5:a1:31:14:53:
         47:ec:a4:3e
-----BEGIN CERTIFICATE-----
MIIDizCCAnOgAwIBAgIBBDANBgkqhkiG9w0BAQsFADB6MRMwEQYKCZImiZPyLGQB
GRYDb3JnMRYwFAYKCZImiZPyLGQBGRYGc2ltcGxlMRMwEQYDVQQKDApTaW1wbGUg
SW5jMRowGAYDVQQLDBFTaW1wbGUgU2lnbmluZyBDQTEaMBgGA1UEAwwRU2ltcGxl
IFNpZ25pbmcgQ0EwHhcNMjAxMDA3MTcwNDE5WhcNMjExMDA3MTcwNDE5WjAQMQ4w
DAYDVQQDDAV0aHJlZTCCASIwDQYJKoZIhvcNAQEBBQADggEPADCCAQoCggEBAN3Q
j+GDblJF8q1hxe4lBAOYfbFMHgDeVsWGV/aKGj+UT9b/hKy8T+R1psBeSOIGOcUv
6LB4pDIlpiJ+FnzcKdalnVQT8IPz8vre0+lv1jbpsz7q33JUWR6Ld8R+4bvRJ9N1
hTRDJpHaurvL/X89f/N5rTAjO35u5CPiVIG4/InfOtygnS+Di7LB60HYaxeejwNC
oE9oFCtMfkpOqbkflDAuzKNpYYt3fHlRzn4S/U1ck0XdYKaXAU7QwycuDOTvgHaT
wh229cbdJOD8MkR2aDOqAxJShvjA80F52T0W59CtOFZiH3m4Nc4iD2lBxTRGcexj
bkPwNtxY8vEYl49NWa0CAwEAAaOBhTCBgjAJBgNVHRMEAjAAMB8GA1UdIwQYMBaA
FCy0sxiKtTq4WquKyqpQdeICEnQ2MA4GA1UdDwEB/wQEAwIFoDATBgNVHSUEDDAK
BggrBgEFBQcDAjAdBgNVHQ4EFgQUcRquR5bVp88RUTDPKdClbGOnzO0wEAYDVR0R
BAkwB4IFdGhyZWUwDQYJKoZIhvcNAQELBQADggEBAAVdaier234YJ5UvHJ1MHomP
eP4nsETtnOJUIK/GkOqbCpj8EvtaEQU0hWDD0jYRN+zOVsbtHZSTlQ2xQRbeOl3k
27OOYb8C29BV1EKI8b/U9R86NVcHyF8uUPGcWnnI1eieLyGoUiq2ppWdj0kPIT37
dybywEBQ7xTVg0fFWqABCUIjZ5HFJMYJzlpgm3stGeGYRYQHqDz06pU57se7vHrX
8pWiGaNo5xCZ0KEDLkA8pAP/wAcNIss9EQc8ANAT15Z76aGA0YgHgmpKbpULDEPG
nrEIN2JdmgsPpYWaiL0WkI03FXlLs/WPW0x6ud0y+B3eBPZAxWP1oTEUU0fspD4=
-----END CERTIFICATE-----
