Certificate:
    Data:
        Version: 3 (0x2)
        Serial Number: 3 (0x3)
        Signature Algorithm: sha256WithRSAEncryption
        Issuer: DC=org, DC=simple, O=Simple Inc, OU=Simple Signing CA, CN=Simple Signing CA
        Validity
            Not Before: Oct  5 05:27:32 2020 GMT
            Not After : Oct  5 05:27:32 2021 GMT
        Subject: CN=two
        Subject Public Key Info:
            Public Key Algorithm: rsaEncryption
                RSA Public-Key: (2048 bit)
                Modulus:
                    00:d9:af:41:dd:ee:26:51:60:f8:c7:98:ca:72:60:
                    d1:e4:22:02:fb:9e:59:b1:37:1c:96:83:bd:9d:0f:
                    e2:fd:7c:49:eb:e3:c3:82:0e:ba:30:95:af:a8:e1:
                    ff:4f:ae:aa:71:a2:f4:25:4e:69:01:fe:a6:8c:3c:
                    d2:48:4c:87:3d:44:9c:aa:14:f9:c7:01:e3:ea:25:
                    de:47:c0:5e:4c:cc:ec:fe:94:32:a6:51:0c:c7:0f:
                    25:66:23:8d:60:67:49:57:fc:94:47:26:61:69:c6:
                    e6:56:36:d7:45:85:8e:07:6d:d7:99:26:e9:6d:19:
                    da:08:67:bb:23:e5:bb:21:f5:b9:e3:9a:d6:22:72:
                    97:50:fb:ba:a0:ff:50:8d:6d:b4:82:10:dd:8b:89:
                    43:09:3a:73:76:fb:1f:ef:30:e7:a6:f3:e6:83:1a:
                    31:c9:5c:59:2f:6a:37:cd:85:2a:49:af:bb:78:f2:
                    d7:52:26:20:b2:8b:3d:90:21:5b:93:0a:b0:b6:51:
                    70:56:e8:c6:e2:fa:3a:f2:ab:5c:7b:35:4f:2c:54:
                    a9:2b:01:eb:77:28:7f:6e:8f:a4:b0:39:9a:85:32:
                    d5:f0:58:f4:54:52:9f:ad:ae:54:df:d0:17:16:12:
                    2b:b1:60:47:91:ed:25:b9:09:5a:98:aa:1f:f3:2a:
                    9d:d1
                Exponent: 65537 (0x10001)
        X509v3 extensions:
            X509v3 Basic Constraints: 
                CA:FALSE
            X509v3 Authority Key Identifier: 
                keyid:2C:B4:B3:18:8A:B5:3A:B8:5A:AB:8A:CA:AA:50:75:E2:02:12:74:36

            X509v3 Key Usage: critical
                Digital Signature, Key Encipherment
            X509v3 Extended Key Usage: 
                TLS Web Client Authentication
            X509v3 Subject Key Identifier: 
                81:65:4D:37:9B:49:E3:B6:2A:D9:58:C7:D5:5F:D2:EF:27:4A:83:7D
            X509v3 Subject Alternative Name: 
                DNS:two
    Signature Algorithm: sha256WithRSAEncryption
         d2:b5:e8:d9:a5:f2:d5:b0:86:a8:2a:f0:6b:56:40:1b:d9:ec:
         65:3c:1a:bd:d9:f7:a0:95:ec:94:3c:d6:5a:0a:52:f6:d6:e7:
         3c:3d:de:61:5b:75:d4:c0:43:b4:04:53:83:61:8f:0f:19:92:
         0a:4d:50:60:3f:9c:3c:ff:ad:bf:04:9f:2e:a5:b2:4e:f6:4b:
         11:78:c7:f2:83:b9:0e:f7:b5:b9:9b:e7:13:22:85:61:00:9e:
         26:15:a6:48:b9:87:91:ac:61:e3:ec:7d:83:6d:e7:75:ca:6a:
         20:93:30:91:f1:48:4f:8f:7b:5d:81:a5:6b:4f:da:17:c6:f9:
         7b:99:75:b5:59:9f:20:88:d5:b9:31:d9:e4:45:85:2c:63:f5:
         4e:ad:4b:43:a6:d8:43:7a:ba:42:b2:49:c9:c5:f0:9a:f1:44:
         d1:c1:62:b8:ae:c7:1f:10:9b:f3:18:d9:94:c0:c6:0a:21:2c:
         60:d7:c8:6d:c4:bc:09:67:fe:28:20:cd:3a:4f:86:a5:84:ed:
         7e:16:e3:69:e3:c3:04:95:41:0f:67:68:f8:02:0e:92:e0:5a:
         86:ce:fa:64:aa:47:e7:60:87:12:fc:b1:1f:a6:c8:62:cd:2f:
         ec:05:06:ff:62:69:a1:6e:98:94:b6:51:76:40:93:c1:3d:83:
         00:14:56:27
-----BEGIN CERTIFICATE-----
MIIDhzCCAm+gAwIBAgIBAzANBgkqhkiG9w0BAQsFADB6MRMwEQYKCZImiZPyLGQB
GRYDb3JnMRYwFAYKCZImiZPyLGQBGRYGc2ltcGxlMRMwEQYDVQQKDApTaW1wbGUg
SW5jMRowGAYDVQQLDBFTaW1wbGUgU2lnbmluZyBDQTEaMBgGA1UEAwwRU2ltcGxl
IFNpZ25pbmcgQ0EwHhcNMjAxMDA1MDUyNzMyWhcNMjExMDA1MDUyNzMyWjAOMQww
CgYDVQQDDAN0d28wggEiMA0GCSqGSIb3DQEBAQUAA4IBDwAwggEKAoIBAQDZr0Hd
7iZRYPjHmMpyYNHkIgL7nlmxNxyWg72dD+L9fEnr48OCDrowla+o4f9PrqpxovQl
TmkB/qaMPNJITIc9RJyqFPnHAePqJd5HwF5MzOz+lDKmUQzHDyVmI41gZ0lX/JRH
JmFpxuZWNtdFhY4HbdeZJultGdoIZ7sj5bsh9bnjmtYicpdQ+7qg/1CNbbSCEN2L
iUMJOnN2+x/vMOem8+aDGjHJXFkvajfNhSpJr7t48tdSJiCyiz2QIVuTCrC2UXBW
6Mbi+jryq1x7NU8sVKkrAet3KH9uj6SwOZqFMtXwWPRUUp+trlTf0BcWEiuxYEeR
7SW5CVqYqh/zKp3RAgMBAAGjgYMwgYAwCQYDVR0TBAIwADAfBgNVHSMEGDAWgBQs
tLMYirU6uFqrisqqUHXiAhJ0NjAOBgNVHQ8BAf8EBAMCBaAwEwYDVR0lBAwwCgYI
KwYBBQUHAwIwHQYDVR0OBBYEFIFlTTebSeO2KtlYx9Vf0u8nSoN9MA4GA1UdEQQH
MAWCA3R3bzANBgkqhkiG9w0BAQsFAAOCAQEA0rXo2aXy1bCGqCrwa1ZAG9nsZTwa
vdn3oJXslDzWWgpS9tbnPD3eYVt11MBDtARTg2GPDxmSCk1QYD+cPP+tvwSfLqWy
TvZLEXjH8oO5Dve1uZvnEyKFYQCeJhWmSLmHkaxh4+x9g23ndcpqIJMwkfFIT497
XYGla0/aF8b5e5l1tVmfIIjVuTHZ5EWFLGP1Tq1LQ6bYQ3q6QrJJycXwmvFE0cFi
uK7HHxCb8xjZlMDGCiEsYNfIbcS8CWf+KCDNOk+GpYTtfhbjaePDBJVBD2do+AIO
kuBahs76ZKpH52CHEvyxH6bIYs0v7AUG/2JpoW6YlLZRdkCTwT2DABRWJw==
-----END CERTIFICATE-----
