Certificate:
    Data:
        Version: 3 (0x2)
        Serial Number: 1 (0x1)
        Signature Algorithm: sha256WithRSAEncryption
        Issuer: DC=org, DC=simple, O=Simple Inc, OU=Simple Root CA, CN=Simple Root CA
        Validity
            Not Before: Oct  5 05:25:08 2020 GMT
            Not After : Oct  5 05:25:08 2021 GMT
        Subject: DC=org, DC=simple, O=Simple Inc, OU=Simple Root CA, CN=Simple Root CA
        Subject Public Key Info:
            Public Key Algorithm: rsaEncryption
                RSA Public-Key: (2048 bit)
                Modulus:
                    00:b9:bd:28:c4:92:16:89:b4:c0:7c:59:80:6b:fa:
                    68:87:2f:01:0e:24:e7:36:3b:c0:66:60:21:7c:9c:
                    f4:11:9d:82:e7:55:f7:4b:23:e2:14:2f:d6:72:48:
                    74:40:6f:ac:e1:3d:ef:0c:cd:fc:dc:3c:f5:c0:59:
                    a3:57:b7:f7:14:ef:e9:3d:f2:bd:a3:67:6d:1c:b1:
                    60:26:7b:60:cd:f6:5d:24:82:f1:9e:1e:84:9c:83:
                    31:55:5c:68:09:ba:84:1c:3e:df:03:c5:ab:e7:75:
                    75:2d:e0:a4:ef:57:6e:13:78:06:ed:e3:8e:13:57:
                    b7:3e:de:70:4e:51:da:c4:c9:98:e5:d9:3d:45:14:
                    f0:5b:33:8f:e7:04:ba:b3:72:40:63:3f:07:ea:ad:
                    f5:33:04:6a:3e:8d:4f:4e:0f:fe:4c:91:cf:85:4a:
                    20:5f:42:4f:e8:70:35:2f:83:3e:33:bb:62:a3:74:
                    8d:3e:23:c6:da:68:af:b1:39:b4:3c:66:ed:5b:34:
                    61:1e:53:7e:7a:0f:8b:5a:f8:9a:a6:27:6a:5b:c1:
                    64:4a:cf:58:f2:28:51:1a:94:5f:64:65:fa:5c:0d:
                    66:f3:f4:6b:11:4e:9a:38:88:92:d9:c3:1e:27:06:
                    69:72:0c:27:59:28:00:e0:c3:fc:9b:3d:10:c4:b4:
                    a4:2d
                Exponent: 65537 (0x10001)
        X509v3 extensions:
            X509v3 Key Usage: critical
                Certificate Sign, CRL Sign
            X509v3 Basic Constraints: critical
                CA:TRUE
            X509v3 Subject Key Identifier: 
                7F:4D:70:51:AA:AA:EB:04:EC:74:0F:58:70:5F:14:44:F8:38:00:84
            X509v3 Authority Key Identifier: 
                keyid:7F:4D:70:51:AA:AA:EB:04:EC:74:0F:58:70:5F:14:44:F8:38:00:84

    Signature Algorithm: sha256WithRSAEncryption
         47:74:12:e2:09:0d:b2:a4:ff:19:f1:16:53:75:bc:0d:93:99:
         03:76:92:94:70:9f:92:9e:cd:b5:09:52:8c:c6:58:cb:6a:f9:
         3a:bc:14:1f:30:fa:bd:e7:f8:bf:73:97:22:34:77:19:4e:58:
         e3:6b:07:73:41:23:6d:6c:7f:f8:e6:a3:40:5b:a7:e0:58:3e:
         ac:d6:86:d8:b7:d4:4c:f6:e5:6b:43:b1:2f:6a:6b:aa:a9:de:
         45:53:5a:12:b7:27:94:66:aa:ba:a7:db:58:cc:d5:cc:97:d9:
         7e:e3:fa:b9:00:11:b2:31:1f:9e:0e:8b:5e:0c:3b:9d:a5:9e:
         e8:42:d8:43:b0:92:b7:03:58:c8:98:35:b4:a5:fd:76:bf:e7:
         3e:81:69:b2:2f:bf:79:ff:8b:1f:7b:96:9e:ab:ba:0c:95:59:
         d9:76:dd:ab:f4:6c:16:f9:22:02:44:3a:84:7c:a6:a6:9a:51:
         8f:b4:e5:6d:cb:65:27:c0:98:a7:69:4b:a7:ee:e4:a9:79:41:
         3d:7a:ec:5a:3d:61:cc:54:4f:5a:de:7a:88:4c:49:bf:53:ed:
         2d:ea:c6:60:fe:7e:10:45:92:4f:66:b8:0d:d8:53:3c:0a:71:
         de:0c:d7:90:b0:a8:c1:3a:8a:a9:f3:eb:1f:78:ac:1b:2b:1f:
         4b:67:23:9d
-----BEGIN CERTIFICATE-----
MIIDxjCCAq6gAwIBAgIBATANBgkqhkiG9w0BAQsFADB0MRMwEQYKCZImiZPyLGQB
GRYDb3JnMRYwFAYKCZImiZPyLGQBGRYGc2ltcGxlMRMwEQYDVQQKDApTaW1wbGUg
SW5jMRcwFQYDVQQLDA5TaW1wbGUgUm9vdCBDQTEXMBUGA1UEAwwOU2ltcGxlIFJv
b3QgQ0EwHhcNMjAxMDA1MDUyNTA4WhcNMjExMDA1MDUyNTA4WjB0MRMwEQYKCZIm
iZPyLGQBGRYDb3JnMRYwFAYKCZImiZPyLGQBGRYGc2ltcGxlMRMwEQYDVQQKDApT
aW1wbGUgSW5jMRcwFQYDVQQLDA5TaW1wbGUgUm9vdCBDQTEXMBUGA1UEAwwOU2lt
cGxlIFJvb3QgQ0EwggEiMA0GCSqGSIb3DQEBAQUAA4IBDwAwggEKAoIBAQC5vSjE
khaJtMB8WYBr+miHLwEOJOc2O8BmYCF8nPQRnYLnVfdLI+IUL9ZySHRAb6zhPe8M
zfzcPPXAWaNXt/cU7+k98r2jZ20csWAme2DN9l0kgvGeHoScgzFVXGgJuoQcPt8D
xavndXUt4KTvV24TeAbt444TV7c+3nBOUdrEyZjl2T1FFPBbM4/nBLqzckBjPwfq
rfUzBGo+jU9OD/5Mkc+FSiBfQk/ocDUvgz4zu2KjdI0+I8baaK+xObQ8Zu1bNGEe
U356D4ta+JqmJ2pbwWRKz1jyKFEalF9kZfpcDWbz9GsRTpo4iJLZwx4nBmlyDCdZ
KADgw/ybPRDEtKQtAgMBAAGjYzBhMA4GA1UdDwEB/wQEAwIBBjAPBgNVHRMBAf8E
BTADAQH/MB0GA1UdDgQWBBR/TXBRqqrrBOx0D1hwXxRE+DgAhDAfBgNVHSMEGDAW
gBR/TXBRqqrrBOx0D1hwXxRE+DgAhDANBgkqhkiG9w0BAQsFAAOCAQEAR3QS4gkN
sqT/GfEWU3W8DZOZA3aSlHCfkp7NtQlSjMZYy2r5OrwUHzD6vef4v3OXIjR3GU5Y
42sHc0EjbWx/+OajQFun4Fg+rNaG2LfUTPbla0OxL2prqqneRVNaErcnlGaquqfb
WMzVzJfZfuP6uQARsjEfng6LXgw7naWe6ELYQ7CStwNYyJg1tKX9dr/nPoFpsi+/
ef+LH3uWnqu6DJVZ2Xbdq/RsFvkiAkQ6hHympppRj7TlbctlJ8CYp2lLp+7kqXlB
PXrsWj1hzFRPWt56iExJv1PtLerGYP5+EEWST2a4DdhTPApx3gzXkLCowTqKqfPr
H3isGysfS2cjnQ==
-----END CERTIFICATE-----
