Certificate:
    Data:
        Version: 3 (0x2)
        Serial Number: 2 (0x2)
        Signature Algorithm: sha256WithRSAEncryption
        Issuer: DC=org, DC=simple, O=Simple Inc, OU=Simple Root CA, CN=Simple Root CA
        Validity
            Not Before: Oct  5 05:25:08 2020 GMT
            Not After : Oct  5 05:25:08 2021 GMT
        Subject: DC=org, DC=simple, O=Simple Inc, OU=Simple Signing CA, CN=Simple Signing CA
        Subject Public Key Info:
            Public Key Algorithm: rsaEncryption
                RSA Public-Key: (2048 bit)
                Modulus:
                    00:f9:20:c0:b5:21:9d:82:5a:76:bc:f4:01:62:cc:
                    64:f9:93:f7:1d:dd:aa:16:94:13:71:5d:be:b6:cd:
                    a9:d7:dc:90:99:32:e9:ea:ba:20:ff:fe:62:a0:21:
                    a5:e6:d9:28:5d:d2:69:00:7d:0b:30:ef:a9:5d:66:
                    e4:56:e9:27:be:ec:37:1b:9f:f4:8d:6a:44:79:a0:
                    a0:bc:3e:a5:1b:5b:f2:a2:50:54:0f:43:3b:d1:40:
                    f9:b3:21:20:5c:4e:52:ed:ac:72:2f:4a:4d:ca:fc:
                    e8:a2:25:74:bf:0a:51:48:c3:6a:55:a8:94:3a:b4:
                    32:5e:f8:34:4a:0e:6b:03:7e:f7:00:ae:ce:76:79:
                    84:4f:c1:6c:d7:ca:82:5c:b5:b9:d2:e7:94:4d:70:
                    ac:74:e0:e5:c2:88:93:c9:bd:84:6b:cd:af:c9:05:
                    0f:38:9e:3c:dc:cb:60:8b:6d:70:10:78:c1:a9:8d:
                    3e:3a:29:6a:d7:38:d5:d7:23:1b:fa:78:92:b4:10:
                    35:53:42:fc:26:15:ef:ed:03:91:1d:98:4d:ca:3a:
                    11:dd:36:af:e1:98:1d:e4:c3:bf:ca:6c:fe:43:28:
                    00:97:4d:af:15:6b:9a:c6:07:ee:00:84:36:f0:b3:
                    50:c9:7e:72:28:e1:5b:9d:41:ff:8e:b8:3b:de:f2:
                    ad:83
                Exponent: 65537 (0x10001)
        X509v3 extensions:
            X509v3 Key Usage: critical
                Certificate Sign, CRL Sign
            X509v3 Basic Constraints: critical
                CA:TRUE, pathlen:0
            X509v3 Subject Key Identifier: 
                2C:B4:B3:18:8A:B5:3A:B8:5A:AB:8A:CA:AA:50:75:E2:02:12:74:36
            X509v3 Authority Key Identifier: 
                keyid:7F:4D:70:51:AA:AA:EB:04:EC:74:0F:58:70:5F:14:44:F8:38:00:84

    Signature Algorithm: sha256WithRSAEncryption
         a6:2d:47:7a:4a:43:00:db:34:c3:dd:d6:d1:81:4e:91:aa:fc:
         c6:91:60:90:a6:5a:c3:88:d2:2b:4c:cc:39:dc:f0:e3:8c:b9:
         df:d3:4d:40:e8:58:0b:f7:c5:86:f8:0c:26:e6:93:fa:21:c1:
         d8:9c:8d:e8:66:aa:bc:25:20:80:31:6d:6b:12:06:65:48:b2:
         43:90:66:92:b1:13:16:58:9c:75:90:38:2c:1e:9f:d5:9c:4f:
         3b:f4:00:a2:a8:17:ce:de:4d:d7:80:98:d1:ea:d6:7e:fa:d2:
         0d:f3:f4:c7:c3:cd:66:63:99:f9:1e:bb:20:34:61:d5:ef:4a:
         15:b5:91:8c:c3:c3:de:b6:58:cd:74:26:48:c4:a6:51:a2:98:
         a1:c2:c4:0b:31:aa:25:72:b1:db:d3:9d:c8:c9:8e:72:05:a1:
         75:a9:32:63:70:b7:86:94:32:d0:23:3b:35:2f:94:6a:7f:47:
         bd:ba:23:49:4c:35:24:9b:2a:55:88:d0:34:ec:fd:8e:c3:90:
         fa:03:34:bb:2d:fb:7f:a1:26:c2:41:46:ac:f4:33:23:b4:46:
         43:6b:2b:c9:35:2c:00:b4:71:68:14:da:7c:22:f2:d4:2f:c8:
         a7:ab:68:81:10:be:4f:e4:f2:e9:13:e3:4f:17:dc:3c:ca:e8:
         b4:15:59:53
-----BEGIN CERTIFICATE-----
MIIDzzCCAregAwIBAgIBAjANBgkqhkiG9w0BAQsFADB0MRMwEQYKCZImiZPyLGQB
GRYDb3JnMRYwFAYKCZImiZPyLGQBGRYGc2ltcGxlMRMwEQYDVQQKDApTaW1wbGUg
SW5jMRcwFQYDVQQLDA5TaW1wbGUgUm9vdCBDQTEXMBUGA1UEAwwOU2ltcGxlIFJv
b3QgQ0EwHhcNMjAxMDA1MDUyNTA4WhcNMjExMDA1MDUyNTA4WjB6MRMwEQYKCZIm
iZPyLGQBGRYDb3JnMRYwFAYKCZImiZPyLGQBGRYGc2ltcGxlMRMwEQYDVQQKDApT
aW1wbGUgSW5jMRowGAYDVQQLDBFTaW1wbGUgU2lnbmluZyBDQTEaMBgGA1UEAwwR
U2ltcGxlIFNpZ25pbmcgQ0EwggEiMA0GCSqGSIb3DQEBAQUAA4IBDwAwggEKAoIB
AQD5IMC1IZ2CWna89AFizGT5k/cd3aoWlBNxXb62zanX3JCZMunquiD//mKgIaXm
2Shd0mkAfQsw76ldZuRW6Se+7Dcbn/SNakR5oKC8PqUbW/KiUFQPQzvRQPmzISBc
TlLtrHIvSk3K/OiiJXS/ClFIw2pVqJQ6tDJe+DRKDmsDfvcArs52eYRPwWzXyoJc
tbnS55RNcKx04OXCiJPJvYRrza/JBQ84njzcy2CLbXAQeMGpjT46KWrXONXXIxv6
eJK0EDVTQvwmFe/tA5EdmE3KOhHdNq/hmB3kw7/KbP5DKACXTa8Va5rGB+4AhDbw
s1DJfnIo4VudQf+OuDve8q2DAgMBAAGjZjBkMA4GA1UdDwEB/wQEAwIBBjASBgNV
HRMBAf8ECDAGAQH/AgEAMB0GA1UdDgQWBBQstLMYirU6uFqrisqqUHXiAhJ0NjAf
BgNVHSMEGDAWgBR/TXBRqqrrBOx0D1hwXxRE+DgAhDANBgkqhkiG9w0BAQsFAAOC
AQEApi1HekpDANs0w93W0YFOkar8xpFgkKZaw4jSK0zMOdzw44y539NNQOhYC/fF
hvgMJuaT+iHB2JyN6GaqvCUggDFtaxIGZUiyQ5BmkrETFlicdZA4LB6f1ZxPO/QA
oqgXzt5N14CY0erWfvrSDfP0x8PNZmOZ+R67IDRh1e9KFbWRjMPD3rZYzXQmSMSm
UaKYocLECzGqJXKx29OdyMmOcgWhdakyY3C3hpQy0CM7NS+Uan9HvbojSUw1JJsq
VYjQNOz9jsOQ+gM0uy37f6EmwkFGrPQzI7RGQ2sryTUsALRxaBTafCLy1C/Ip6to
gRC+T+Ty6RPjTxfcPMrotBVZUw==
-----END CERTIFICATE-----
